; Function Attrs: mustprogress uwtable
define noundef nonnull align 4 dereferenceable(8) ptr @_ZN8QuantLib6PeriodmIERKS0_(ptr noundef nonnull returned align 4 dereferenceable(8) %this, ptr nocapture noundef nonnull readonly align 4 dereferenceable(8) %p) local_unnamed_addr #0 align 2 {
entry:
  %ref.tmp = alloca %"class.QuantLib::Period", align 8
  call void @llvm.lifetime.start.p0(i64 8, ptr nonnull %ref.tmp) #17
  %0 = load i32, ptr %p, align 4, !tbaa !3
  %sub.i = sub nsw i32 0, %0
  %units_.i.i = getelementptr inbounds nuw i8, ptr %p, i64 4
  %1 = load i32, ptr %units_.i.i, align 4, !tbaa !9
  %retval.sroa.2.0.insert.ext.i = zext i32 %1 to i64
  %retval.sroa.2.0.insert.shift.i = shl nuw i64 %retval.sroa.2.0.insert.ext.i, 32
  %retval.sroa.0.0.insert.ext.i = zext i32 %sub.i to i64
  %retval.sroa.0.0.insert.insert.i = or disjoint i64 %retval.sroa.2.0.insert.shift.i, %retval.sroa.0.0.insert.ext.i
  store i64 %retval.sroa.0.0.insert.insert.i, ptr %ref.tmp, align 8
  %call2 = call noundef nonnull align 4 dereferenceable(8) ptr @_ZN8QuantLib6PeriodpLERKS0_(ptr noundef nonnull align 4 dereferenceable(8) %this, ptr noundef nonnull align 4 dereferenceable(8) %ref.tmp)
  call void @llvm.lifetime.end.p0(i64 8, ptr nonnull %ref.tmp) #17
  ret ptr %this
}